target datalayout = "e-m:e-p270:32:32-p271:32:32-p272:64:64-i64:64-i128:128-f80:128-n8:16:32:64-S128"
target triple = "x86_64-pc-linux-gnu"

; Function Attrs: nounwind uwtable
define internal i32 @vert_scalar_product(ptr noundef %0, i64 noundef %1, ptr noundef %2) #0 {
  %4 = alloca ptr, align 8
  %5 = alloca i64, align 8
  %6 = alloca ptr, align 8
  %7 = alloca i32, align 4
  %8 = alloca i32, align 4
  store ptr %0, ptr %4, align 8
  store i64 %1, ptr %5, align 8
  store ptr %2, ptr %6, align 8
  store i32 0, ptr %7, align 4
  store i32 0, ptr %8, align 4
  br label %9

9:                                                ; preds = %30, %3
  %10 = load i32, ptr %8, align 4
  %11 = icmp slt i32 %10, 8
  br i1 %11, label %12, label %33

12:                                               ; preds = %9
  %13 = load ptr, ptr %4, align 8
  %14 = load i32, ptr %8, align 4
  %15 = sext i32 %14 to i64
  %16 = load i64, ptr %5, align 8
  %17 = mul nsw i64 %15, %16
  %18 = getelementptr inbounds i8, ptr %13, i64 %17
  %19 = load i8, ptr %18, align 1
  %20 = zext i8 %19 to i32
  %21 = load ptr, ptr %6, align 8
  %22 = load i32, ptr %8, align 4
  %23 = sext i32 %22 to i64
  %24 = getelementptr inbounds i16, ptr %21, i64 %23
  %25 = load i16, ptr %24, align 2
  %26 = sext i16 %25 to i32
  %27 = mul nsw i32 %20, %26
  %28 = load i32, ptr %7, align 4
  %29 = add nsw i32 %28, %27
  store i32 %29, ptr %7, align 4
  br label %30

30:                                               ; preds = %12
  %31 = load i32, ptr %8, align 4
  %32 = add nsw i32 %31, 1
  store i32 %32, ptr %8, align 4
  br label %9, !llvm.loop !16

33:                                               ; preds = %9
  %34 = load i32, ptr %7, align 4
  ret i32 %34
}

; Function Attrs: nounwind uwtable
define internal zeroext i8 @clip_pixel(i32 noundef %0) #0 {
  %2 = alloca i32, align 4
  store i32 %0, ptr %2, align 4
  %3 = load i32, ptr %2, align 4
  %4 = icmp sgt i32 %3, 255
  br i1 %4, label %5, label %6

5:                                                ; preds = %1
  br label %14

6:                                                ; preds = %1
  %7 = load i32, ptr %2, align 4
  %8 = icmp slt i32 %7, 0
  br i1 %8, label %9, label %10

9:                                                ; preds = %6
  br label %12

10:                                               ; preds = %6
  %11 = load i32, ptr %2, align 4
  br label %12

12:                                               ; preds = %10, %9
  %13 = phi i32 [ 0, %9 ], [ %11, %10 ]
  br label %14

14:                                               ; preds = %12, %5
  %15 = phi i32 [ 255, %5 ], [ %13, %12 ]
  %16 = trunc i32 %15 to i8
  ret i8 %16
}

; Function Attrs: nounwind uwtable
define internal i32 @horz_scalar_product(ptr noundef %0, ptr noundef %1) #0 {
  %3 = alloca ptr, align 8
  %4 = alloca ptr, align 8
  %5 = alloca i32, align 4
  %6 = alloca i32, align 4
  store ptr %0, ptr %3, align 8
  store ptr %1, ptr %4, align 8
  store i32 0, ptr %5, align 4
  store i32 0, ptr %6, align 4
  br label %7

7:                                                ; preds = %26, %2
  %8 = load i32, ptr %6, align 4
  %9 = icmp slt i32 %8, 8
  br i1 %9, label %10, label %29

10:                                               ; preds = %7
  %11 = load ptr, ptr %3, align 8
  %12 = load i32, ptr %6, align 4
  %13 = sext i32 %12 to i64
  %14 = getelementptr inbounds i8, ptr %11, i64 %13
  %15 = load i8, ptr %14, align 1
  %16 = zext i8 %15 to i32
  %17 = load ptr, ptr %4, align 8
  %18 = load i32, ptr %6, align 4
  %19 = sext i32 %18 to i64
  %20 = getelementptr inbounds i16, ptr %17, i64 %19
  %21 = load i16, ptr %20, align 2
  %22 = sext i16 %21 to i32
  %23 = mul nsw i32 %16, %22
  %24 = load i32, ptr %5, align 4
  %25 = add nsw i32 %24, %23
  store i32 %25, ptr %5, align 4
  br label %26

26:                                               ; preds = %10
  %27 = load i32, ptr %6, align 4
  %28 = add nsw i32 %27, 1
  store i32 %28, ptr %6, align 4
  br label %7, !llvm.loop !15

29:                                               ; preds = %7
  %30 = load i32, ptr %5, align 4
  ret i32 %30
}

; Function Attrs: nounwind uwtable
define internal void @convolve_vert(ptr noundef %0, i64 noundef %1, ptr noundef %2, i64 noundef %3, ptr noundef %4, i32 noundef %5, i32 noundef %6, i32 noundef %7, i32 noundef %8) #0 {
  %10 = alloca ptr, align 8
  %11 = alloca i64, align 8
  %12 = alloca ptr, align 8
  %13 = alloca i64, align 8
  %14 = alloca ptr, align 8
  %15 = alloca i32, align 4
  %16 = alloca i32, align 4
  %17 = alloca i32, align 4
  %18 = alloca i32, align 4
  %19 = alloca i32, align 4
  %20 = alloca i32, align 4
  %21 = alloca i32, align 4
  %22 = alloca ptr, align 8
  %23 = alloca ptr, align 8
  %24 = alloca i32, align 4
  store ptr %0, ptr %10, align 8
  store i64 %1, ptr %11, align 8
  store ptr %2, ptr %12, align 8
  store i64 %3, ptr %13, align 8
  store ptr %4, ptr %14, align 8
  store i32 %5, ptr %15, align 4
  store i32 %6, ptr %16, align 4
  store i32 %7, ptr %17, align 4
  store i32 %8, ptr %18, align 4
  %25 = load i64, ptr %11, align 8
  %26 = mul nsw i64 %25, 3
  %27 = load ptr, ptr %10, align 8
  %28 = sub i64 0, %26
  %29 = getelementptr inbounds i8, ptr %27, i64 %28
  store ptr %29, ptr %10, align 8
  store i32 0, ptr %19, align 4
  br label %30

30:                                               ; preds = %79, %9
  %31 = load i32, ptr %19, align 4
  %32 = load i32, ptr %17, align 4
  %33 = icmp slt i32 %31, %32
  br i1 %33, label %34, label %82

34:                                               ; preds = %30
  %35 = load i32, ptr %15, align 4
  store i32 %35, ptr %20, align 4
  store i32 0, ptr %21, align 4
  br label %36

36:                                               ; preds = %71, %34
  %37 = load i32, ptr %21, align 4
  %38 = load i32, ptr %18, align 4
  %39 = icmp slt i32 %37, %38
  br i1 %39, label %40, label %74

40:                                               ; preds = %36
  %41 = load ptr, ptr %10, align 8
  %42 = load i32, ptr %20, align 4
  %43 = ashr i32 %42, 4
  %44 = sext i32 %43 to i64
  %45 = load i64, ptr %11, align 8
  %46 = mul nsw i64 %44, %45
  %47 = getelementptr inbounds i8, ptr %41, i64 %46
  store ptr %47, ptr %22, align 8
  %48 = load ptr, ptr %14, align 8
  %49 = load i32, ptr %20, align 4
  %50 = and i32 %49, 15
  %51 = sext i32 %50 to i64
  %52 = getelementptr inbounds [8 x i16], ptr %48, i64 %51
  %53 = getelementptr inbounds [8 x i16], ptr %52, i64 0, i64 0
  store ptr %53, ptr %23, align 8
  %54 = load ptr, ptr %22, align 8
  %55 = load i64, ptr %11, align 8
  %56 = load ptr, ptr %23, align 8
  %57 = call i32 @vert_scalar_product(ptr noundef %54, i64 noundef %55, ptr noundef %56)
  store i32 %57, ptr %24, align 4
  %58 = load i32, ptr %24, align 4
  %59 = add nsw i32 %58, 64
  %60 = ashr i32 %59, 7
  %61 = call zeroext i8 @clip_pixel(i32 noundef %60)
  %62 = load ptr, ptr %12, align 8
  %63 = load i32, ptr %21, align 4
  %64 = sext i32 %63 to i64
  %65 = load i64, ptr %13, align 8
  %66 = mul nsw i64 %64, %65
  %67 = getelementptr inbounds i8, ptr %62, i64 %66
  store i8 %61, ptr %67, align 1
  %68 = load i32, ptr %16, align 4
  %69 = load i32, ptr %20, align 4
  %70 = add nsw i32 %69, %68
  store i32 %70, ptr %20, align 4
  br label %71

71:                                               ; preds = %40
  %72 = load i32, ptr %21, align 4
  %73 = add nsw i32 %72, 1
  store i32 %73, ptr %21, align 4
  br label %36, !llvm.loop !7

74:                                               ; preds = %36
  %75 = load ptr, ptr %10, align 8
  %76 = getelementptr inbounds i8, ptr %75, i32 1
  store ptr %76, ptr %10, align 8
  %77 = load ptr, ptr %12, align 8
  %78 = getelementptr inbounds i8, ptr %77, i32 1
  store ptr %78, ptr %12, align 8
  br label %79

79:                                               ; preds = %74
  %80 = load i32, ptr %19, align 4
  %81 = add nsw i32 %80, 1
  store i32 %81, ptr %19, align 4
  br label %30, !llvm.loop !8

82:                                               ; preds = %30
  ret void
}

; Function Attrs: nounwind uwtable
define internal void @convolve_horiz(ptr noundef %0, i64 noundef %1, ptr noundef %2, i64 noundef %3, ptr noundef %4, i32 noundef %5, i32 noundef %6, i32 noundef %7, i32 noundef %8) #0 {
  %10 = alloca ptr, align 8
  %11 = alloca i64, align 8
  %12 = alloca ptr, align 8
  %13 = alloca i64, align 8
  %14 = alloca ptr, align 8
  %15 = alloca i32, align 4
  %16 = alloca i32, align 4
  %17 = alloca i32, align 4
  %18 = alloca i32, align 4
  %19 = alloca i32, align 4
  %20 = alloca i32, align 4
  %21 = alloca i32, align 4
  %22 = alloca ptr, align 8
  %23 = alloca ptr, align 8
  %24 = alloca i32, align 4
  store ptr %0, ptr %10, align 8
  store i64 %1, ptr %11, align 8
  store ptr %2, ptr %12, align 8
  store i64 %3, ptr %13, align 8
  store ptr %4, ptr %14, align 8
  store i32 %5, ptr %15, align 4
  store i32 %6, ptr %16, align 4
  store i32 %7, ptr %17, align 4
  store i32 %8, ptr %18, align 4
  %25 = load ptr, ptr %10, align 8
  %26 = getelementptr inbounds i8, ptr %25, i64 -3
  store ptr %26, ptr %10, align 8
  store i32 0, ptr %19, align 4
  br label %27

27:                                               ; preds = %73, %9
  %28 = load i32, ptr %19, align 4
  %29 = load i32, ptr %18, align 4
  %30 = icmp slt i32 %28, %29
  br i1 %30, label %31, label %76

31:                                               ; preds = %27
  %32 = load i32, ptr %15, align 4
  store i32 %32, ptr %20, align 4
  store i32 0, ptr %21, align 4
  br label %33

33:                                               ; preds = %63, %31
  %34 = load i32, ptr %21, align 4
  %35 = load i32, ptr %17, align 4
  %36 = icmp slt i32 %34, %35
  br i1 %36, label %37, label %66

37:                                               ; preds = %33
  %38 = load ptr, ptr %10, align 8
  %39 = load i32, ptr %20, align 4
  %40 = ashr i32 %39, 4
  %41 = sext i32 %40 to i64
  %42 = getelementptr inbounds i8, ptr %38, i64 %41
  store ptr %42, ptr %22, align 8
  %43 = load ptr, ptr %14, align 8
  %44 = load i32, ptr %20, align 4
  %45 = and i32 %44, 15
  %46 = sext i32 %45 to i64
  %47 = getelementptr inbounds [8 x i16], ptr %43, i64 %46
  %48 = getelementptr inbounds [8 x i16], ptr %47, i64 0, i64 0
  store ptr %48, ptr %23, align 8
  %49 = load ptr, ptr %22, align 8
  %50 = load ptr, ptr %23, align 8
  %51 = call i32 @horz_scalar_product(ptr noundef %49, ptr noundef %50)
  store i32 %51, ptr %24, align 4
  %52 = load i32, ptr %24, align 4
  %53 = add nsw i32 %52, 64
  %54 = ashr i32 %53, 7
  %55 = call zeroext i8 @clip_pixel(i32 noundef %54)
  %56 = load ptr, ptr %12, align 8
  %57 = load i32, ptr %21, align 4
  %58 = sext i32 %57 to i64
  %59 = getelementptr inbounds i8, ptr %56, i64 %58
  store i8 %55, ptr %59, align 1
  %60 = load i32, ptr %16, align 4
  %61 = load i32, ptr %20, align 4
  %62 = add nsw i32 %61, %60
  store i32 %62, ptr %20, align 4
  br label %63

63:                                               ; preds = %37
  %64 = load i32, ptr %21, align 4
  %65 = add nsw i32 %64, 1
  store i32 %65, ptr %21, align 4
  br label %33, !llvm.loop !4

66:                                               ; preds = %33
  %67 = load i64, ptr %11, align 8
  %68 = load ptr, ptr %10, align 8
  %69 = getelementptr inbounds i8, ptr %68, i64 %67
  store ptr %69, ptr %10, align 8
  %70 = load i64, ptr %13, align 8
  %71 = load ptr, ptr %12, align 8
  %72 = getelementptr inbounds i8, ptr %71, i64 %70
  store ptr %72, ptr %12, align 8
  br label %73

73:                                               ; preds = %66
  %74 = load i32, ptr %19, align 4
  %75 = add nsw i32 %74, 1
  store i32 %75, ptr %19, align 4
  br label %27, !llvm.loop !6

76:                                               ; preds = %27
  ret void
}

; Function Attrs: nounwind uwtable
define hidden void @aom_convolve8_c(ptr noundef %0, i64 noundef %1, ptr noundef %2, i64 noundef %3, ptr noundef %4, i32 noundef %5, i32 noundef %6, i32 noundef %7, i32 noundef %8, i32 noundef %9, i32 noundef %10) #0 {
  %12 = alloca ptr, align 8
  %13 = alloca i64, align 8
  %14 = alloca ptr, align 8
  %15 = alloca i64, align 8
  %16 = alloca ptr, align 8
  %17 = alloca i32, align 4
  %18 = alloca i32, align 4
  %19 = alloca i32, align 4
  %20 = alloca i32, align 4
  %21 = alloca i32, align 4
  %22 = alloca i32, align 4
  %23 = alloca [8640 x i8], align 16
  %24 = alloca i32, align 4
  store ptr %0, ptr %12, align 8
  store i64 %1, ptr %13, align 8
  store ptr %2, ptr %14, align 8
  store i64 %3, ptr %15, align 8
  store ptr %4, ptr %16, align 8
  store i32 %5, ptr %17, align 4
  store i32 %6, ptr %18, align 4
  store i32 %7, ptr %19, align 4
  store i32 %8, ptr %20, align 4
  store i32 %9, ptr %21, align 4
  store i32 %10, ptr %22, align 4
  %25 = load i32, ptr %22, align 4
  %26 = sub nsw i32 %25, 1
  %27 = load i32, ptr %20, align 4
  %28 = mul nsw i32 %26, %27
  %29 = load i32, ptr %19, align 4
  %30 = add nsw i32 %28, %29
  %31 = ashr i32 %30, 4
  %32 = add nsw i32 %31, 8
  store i32 %32, ptr %24, align 4
  %33 = load ptr, ptr %12, align 8
  %34 = load i64, ptr %13, align 8
  %35 = mul nsw i64 %34, 3
  %36 = sub i64 0, %35
  %37 = getelementptr inbounds i8, ptr %33, i64 %36
  %38 = load i64, ptr %13, align 8
  %39 = getelementptr inbounds [8640 x i8], ptr %23, i64 0, i64 0
  %40 = load ptr, ptr %16, align 8
  %41 = load i32, ptr %17, align 4
  %42 = load i32, ptr %18, align 4
  %43 = load i32, ptr %21, align 4
  %44 = load i32, ptr %24, align 4
  call void @convolve_horiz(ptr noundef %37, i64 noundef %38, ptr noundef %39, i64 noundef 64, ptr noundef %40, i32 noundef %41, i32 noundef %42, i32 noundef %43, i32 noundef %44)
  %45 = getelementptr inbounds [8640 x i8], ptr %23, i64 0, i64 0
  %46 = getelementptr inbounds i8, ptr %45, i64 192
  %47 = load ptr, ptr %14, align 8
  %48 = load i64, ptr %15, align 8
  %49 = load ptr, ptr %16, align 8
  %50 = load i32, ptr %19, align 4
  %51 = load i32, ptr %20, align 4
  %52 = load i32, ptr %21, align 4
  %53 = load i32, ptr %22, align 4
  call void @convolve_vert(ptr noundef %46, i64 noundef 64, ptr noundef %47, i64 noundef %48, ptr noundef %49, i32 noundef %50, i32 noundef %51, i32 noundef %52, i32 noundef %53)
  ret void
}

; Function Attrs: nounwind uwtable
define hidden void @aom_scaled_2d_c(ptr noundef %0, i64 noundef %1, ptr noundef %2, i64 noundef %3, ptr noundef %4, i32 noundef %5, i32 noundef %6, i32 noundef %7, i32 noundef %8, i32 noundef %9, i32 noundef %10) #0 {
  %12 = alloca ptr, align 8
  %13 = alloca i64, align 8
  %14 = alloca ptr, align 8
  %15 = alloca i64, align 8
  %16 = alloca ptr, align 8
  %17 = alloca i32, align 4
  %18 = alloca i32, align 4
  %19 = alloca i32, align 4
  %20 = alloca i32, align 4
  %21 = alloca i32, align 4
  %22 = alloca i32, align 4
  store ptr %0, ptr %12, align 8
  store i64 %1, ptr %13, align 8
  store ptr %2, ptr %14, align 8
  store i64 %3, ptr %15, align 8
  store ptr %4, ptr %16, align 8
  store i32 %5, ptr %17, align 4
  store i32 %6, ptr %18, align 4
  store i32 %7, ptr %19, align 4
  store i32 %8, ptr %20, align 4
  store i32 %9, ptr %21, align 4
  store i32 %10, ptr %22, align 4
  %23 = load ptr, ptr %12, align 8
  %24 = load i64, ptr %13, align 8
  %25 = load ptr, ptr %14, align 8
  %26 = load i64, ptr %15, align 8
  %27 = load ptr, ptr %16, align 8
  %28 = load i32, ptr %17, align 4
  %29 = load i32, ptr %18, align 4
  %30 = load i32, ptr %19, align 4
  %31 = load i32, ptr %20, align 4
  %32 = load i32, ptr %21, align 4
  %33 = load i32, ptr %22, align 4
  call void @aom_convolve8_c(ptr noundef %23, i64 noundef %24, ptr noundef %25, i64 noundef %26, ptr noundef %27, i32 noundef %28, i32 noundef %29, i32 noundef %30, i32 noundef %31, i32 noundef %32, i32 noundef %33)
  ret void
}